SF:/home/william/Desktop/AQA-ASM/src/interpreter.rs
FN:26,_RNvMNtCs7ty7gSeXD74_7aqa_asm11interpreterNtB2_11Interpreter9interpret
FN:43,_RNvMNtCs7ty7gSeXD74_7aqa_asm11interpreterNtB2_11Interpreter18internal_interpret
FN:93,_RNvMNtCs7ty7gSeXD74_7aqa_asm11interpreterNtB2_11Interpreter24read_next_memory_address
FN:106,_RNvMNtCs7ty7gSeXD74_7aqa_asm11interpreterNtB2_11Interpreter19read_memory_address
FN:113,_RNvMNtCs7ty7gSeXD74_7aqa_asm11interpreterNtB2_11Interpreter20write_memory_address
FN:123,_RNvMNtCs7ty7gSeXD74_7aqa_asm11interpreterNtB2_11Interpreter13take_u8_input
FN:136,_RNvMNtCs7ty7gSeXD74_7aqa_asm11interpreterNtB2_11Interpreter13interpret_ldr
FN:143,_RNvMNtCs7ty7gSeXD74_7aqa_asm11interpreterNtB2_11Interpreter13interpret_str
FN:150,_RNvMNtCs7ty7gSeXD74_7aqa_asm11interpreterNtB2_11Interpreter22interpret_add_register
FN:158,_RNvMNtCs7ty7gSeXD74_7aqa_asm11interpreterNtB2_11Interpreter21interpret_add_literal
FN:166,_RNvMNtCs7ty7gSeXD74_7aqa_asm11interpreterNtB2_11Interpreter22interpret_sub_register
FN:174,_RNvMNtCs7ty7gSeXD74_7aqa_asm11interpreterNtB2_11Interpreter21interpret_sub_literal
FN:182,_RNvMNtCs7ty7gSeXD74_7aqa_asm11interpreterNtB2_11Interpreter22interpret_mov_register
FN:189,_RNvMNtCs7ty7gSeXD74_7aqa_asm11interpreterNtB2_11Interpreter21interpret_mov_literal
FN:196,_RNvMNtCs7ty7gSeXD74_7aqa_asm11interpreterNtB2_11Interpreter22interpret_cmp_register
FN:205,_RNvMNtCs7ty7gSeXD74_7aqa_asm11interpreterNtB2_11Interpreter21interpret_cmp_literal
FN:213,_RNvMNtCs7ty7gSeXD74_7aqa_asm11interpreterNtB2_11Interpreter11interpret_b
FN:219,_RNvMNtCs7ty7gSeXD74_7aqa_asm11interpreterNtB2_11Interpreter13interpret_beq
FN:229,_RNvMNtCs7ty7gSeXD74_7aqa_asm11interpreterNtB2_11Interpreter13interpret_bne
FN:239,_RNvMNtCs7ty7gSeXD74_7aqa_asm11interpreterNtB2_11Interpreter13interpret_bgt
FN:249,_RNvMNtCs7ty7gSeXD74_7aqa_asm11interpreterNtB2_11Interpreter13interpret_blt
FN:259,_RNvMNtCs7ty7gSeXD74_7aqa_asm11interpreterNtB2_11Interpreter22interpret_and_register
FN:267,_RNvMNtCs7ty7gSeXD74_7aqa_asm11interpreterNtB2_11Interpreter21interpret_and_literal
FN:275,_RNvMNtCs7ty7gSeXD74_7aqa_asm11interpreterNtB2_11Interpreter22interpret_orr_register
FN:283,_RNvMNtCs7ty7gSeXD74_7aqa_asm11interpreterNtB2_11Interpreter21interpret_orr_literal
FN:291,_RNvMNtCs7ty7gSeXD74_7aqa_asm11interpreterNtB2_11Interpreter22interpret_eor_register
FN:299,_RNvMNtCs7ty7gSeXD74_7aqa_asm11interpreterNtB2_11Interpreter21interpret_eor_literal
FN:307,_RNvMNtCs7ty7gSeXD74_7aqa_asm11interpreterNtB2_11Interpreter22interpret_mvn_register
FN:314,_RNvMNtCs7ty7gSeXD74_7aqa_asm11interpreterNtB2_11Interpreter21interpret_mvn_literal
FN:321,_RNvMNtCs7ty7gSeXD74_7aqa_asm11interpreterNtB2_11Interpreter22interpret_lsl_register
FN:329,_RNvMNtCs7ty7gSeXD74_7aqa_asm11interpreterNtB2_11Interpreter21interpret_lsl_literal
FN:337,_RNvMNtCs7ty7gSeXD74_7aqa_asm11interpreterNtB2_11Interpreter22interpret_lsr_register
FN:345,_RNvMNtCs7ty7gSeXD74_7aqa_asm11interpreterNtB2_11Interpreter21interpret_lsr_literal
FN:353,_RNvMNtCs7ty7gSeXD74_7aqa_asm11interpreterNtB2_11Interpreter24interpret_print_register
FN:359,_RNvMNtCs7ty7gSeXD74_7aqa_asm11interpreterNtB2_11Interpreter22interpret_print_memory
FN:365,_RNvMNtCs7ty7gSeXD74_7aqa_asm11interpreterNtB2_11Interpreter24interpret_input_register
FN:371,_RNvMNtCs7ty7gSeXD74_7aqa_asm11interpreterNtB2_11Interpreter22interpret_input_memory
FN:382,_RNvNtNtCs7ty7gSeXD74_7aqa_asm11interpreter5tests17load_test_program
FN:389,_RNvNtNtCs7ty7gSeXD74_7aqa_asm11interpreter5testss_8test_nop
FN:401,_RNvNtNtCs7ty7gSeXD74_7aqa_asm11interpreter5testss_8test_ldr
FN:410,_RNvNtNtCs7ty7gSeXD74_7aqa_asm11interpreter5testss_8test_str
FN:420,_RNvNtNtCs7ty7gSeXD74_7aqa_asm11interpreter5testss_8test_add
FN:440,_RNvNtNtCs7ty7gSeXD74_7aqa_asm11interpreter5testss_8test_sub
FN:462,_RNvNtNtCs7ty7gSeXD74_7aqa_asm11interpreter5testss_8test_mov
FN:480,_RNvNtNtCs7ty7gSeXD74_7aqa_asm11interpreter5testss_22test_cmp_equal_numbers
FN:510,_RNvNtNtCs7ty7gSeXD74_7aqa_asm11interpreter5testss_21test_cmp_greater_than
FN:540,_RNvNtNtCs7ty7gSeXD74_7aqa_asm11interpreter5testss_18test_cmp_less_than
FN:571,_RNvNtNtCs7ty7gSeXD74_7aqa_asm11interpreter5testss_25test_unconditional_branch
FN:586,_RNvNtNtCs7ty7gSeXD74_7aqa_asm11interpreter5testss_8test_beq
FN:615,_RNvNtNtCs7ty7gSeXD74_7aqa_asm11interpreter5testss_8test_bne
FN:644,_RNvNtNtCs7ty7gSeXD74_7aqa_asm11interpreter5testss_8test_bgt
FN:680,_RNvNtNtCs7ty7gSeXD74_7aqa_asm11interpreter5testss_8test_blt
FN:716,_RNvNtNtCs7ty7gSeXD74_7aqa_asm11interpreter5testss_8test_and
FN:739,_RNvNtNtCs7ty7gSeXD74_7aqa_asm11interpreter5testss_8test_orr
FN:760,_RNvNtNtCs7ty7gSeXD74_7aqa_asm11interpreter5testss_8test_eor
FN:782,_RNvNtNtCs7ty7gSeXD74_7aqa_asm11interpreter5testss_8test_mvn
FN:802,_RNvNtNtCs7ty7gSeXD74_7aqa_asm11interpreter5testss_8test_lsl
FN:825,_RNvNtNtCs7ty7gSeXD74_7aqa_asm11interpreter5testss_8test_lsr
FN:848,_RNvNtNtCs7ty7gSeXD74_7aqa_asm11interpreter5testss_9test_halt
FN:862,_RNvNtNtCs7ty7gSeXD74_7aqa_asm11interpreter5testss_23test_out_of_bounds_read
FN:873,_RNvNtNtCs7ty7gSeXD74_7aqa_asm11interpreter5testss_24test_out_of_bounds_write
FN:884,_RNvNtNtCs7ty7gSeXD74_7aqa_asm11interpreter5testss_24test_read_past_of_memory
FNDA:23,_RNvMNtCs7ty7gSeXD74_7aqa_asm11interpreterNtB2_11Interpreter9interpret
FNDA:33,_RNvMNtCs7ty7gSeXD74_7aqa_asm11interpreterNtB2_11Interpreter18internal_interpret
FNDA:146,_RNvMNtCs7ty7gSeXD74_7aqa_asm11interpreterNtB2_11Interpreter24read_next_memory_address
FNDA:2,_RNvMNtCs7ty7gSeXD74_7aqa_asm11interpreterNtB2_11Interpreter19read_memory_address
FNDA:2,_RNvMNtCs7ty7gSeXD74_7aqa_asm11interpreterNtB2_11Interpreter20write_memory_address
FNDA:0,_RNvMNtCs7ty7gSeXD74_7aqa_asm11interpreterNtB2_11Interpreter13take_u8_input
FNDA:2,_RNvMNtCs7ty7gSeXD74_7aqa_asm11interpreterNtB2_11Interpreter13interpret_ldr
FNDA:2,_RNvMNtCs7ty7gSeXD74_7aqa_asm11interpreterNtB2_11Interpreter13interpret_str
FNDA:1,_RNvMNtCs7ty7gSeXD74_7aqa_asm11interpreterNtB2_11Interpreter22interpret_add_register
FNDA:1,_RNvMNtCs7ty7gSeXD74_7aqa_asm11interpreterNtB2_11Interpreter21interpret_add_literal
FNDA:1,_RNvMNtCs7ty7gSeXD74_7aqa_asm11interpreterNtB2_11Interpreter22interpret_sub_register
FNDA:1,_RNvMNtCs7ty7gSeXD74_7aqa_asm11interpreterNtB2_11Interpreter21interpret_sub_literal
FNDA:1,_RNvMNtCs7ty7gSeXD74_7aqa_asm11interpreterNtB2_11Interpreter22interpret_mov_register
FNDA:1,_RNvMNtCs7ty7gSeXD74_7aqa_asm11interpreterNtB2_11Interpreter21interpret_mov_literal
FNDA:3,_RNvMNtCs7ty7gSeXD74_7aqa_asm11interpreterNtB2_11Interpreter22interpret_cmp_register
FNDA:3,_RNvMNtCs7ty7gSeXD74_7aqa_asm11interpreterNtB2_11Interpreter21interpret_cmp_literal
FNDA:1,_RNvMNtCs7ty7gSeXD74_7aqa_asm11interpreterNtB2_11Interpreter11interpret_b
FNDA:2,_RNvMNtCs7ty7gSeXD74_7aqa_asm11interpreterNtB2_11Interpreter13interpret_beq
FNDA:2,_RNvMNtCs7ty7gSeXD74_7aqa_asm11interpreterNtB2_11Interpreter13interpret_bne
FNDA:3,_RNvMNtCs7ty7gSeXD74_7aqa_asm11interpreterNtB2_11Interpreter13interpret_bgt
FNDA:3,_RNvMNtCs7ty7gSeXD74_7aqa_asm11interpreterNtB2_11Interpreter13interpret_blt
FNDA:1,_RNvMNtCs7ty7gSeXD74_7aqa_asm11interpreterNtB2_11Interpreter22interpret_and_register
FNDA:1,_RNvMNtCs7ty7gSeXD74_7aqa_asm11interpreterNtB2_11Interpreter21interpret_and_literal
FNDA:1,_RNvMNtCs7ty7gSeXD74_7aqa_asm11interpreterNtB2_11Interpreter22interpret_orr_register
FNDA:1,_RNvMNtCs7ty7gSeXD74_7aqa_asm11interpreterNtB2_11Interpreter21interpret_orr_literal
FNDA:1,_RNvMNtCs7ty7gSeXD74_7aqa_asm11interpreterNtB2_11Interpreter22interpret_eor_register
FNDA:1,_RNvMNtCs7ty7gSeXD74_7aqa_asm11interpreterNtB2_11Interpreter21interpret_eor_literal
FNDA:1,_RNvMNtCs7ty7gSeXD74_7aqa_asm11interpreterNtB2_11Interpreter22interpret_mvn_register
FNDA:1,_RNvMNtCs7ty7gSeXD74_7aqa_asm11interpreterNtB2_11Interpreter21interpret_mvn_literal
FNDA:1,_RNvMNtCs7ty7gSeXD74_7aqa_asm11interpreterNtB2_11Interpreter22interpret_lsl_register
FNDA:1,_RNvMNtCs7ty7gSeXD74_7aqa_asm11interpreterNtB2_11Interpreter21interpret_lsl_literal
FNDA:1,_RNvMNtCs7ty7gSeXD74_7aqa_asm11interpreterNtB2_11Interpreter22interpret_lsr_register
FNDA:1,_RNvMNtCs7ty7gSeXD74_7aqa_asm11interpreterNtB2_11Interpreter21interpret_lsr_literal
FNDA:0,_RNvMNtCs7ty7gSeXD74_7aqa_asm11interpreterNtB2_11Interpreter24interpret_print_register
FNDA:0,_RNvMNtCs7ty7gSeXD74_7aqa_asm11interpreterNtB2_11Interpreter22interpret_print_memory
FNDA:0,_RNvMNtCs7ty7gSeXD74_7aqa_asm11interpreterNtB2_11Interpreter24interpret_input_register
FNDA:0,_RNvMNtCs7ty7gSeXD74_7aqa_asm11interpreterNtB2_11Interpreter22interpret_input_memory
FNDA:27,_RNvNtNtCs7ty7gSeXD74_7aqa_asm11interpreter5tests17load_test_program
FNDA:1,_RNvNtNtCs7ty7gSeXD74_7aqa_asm11interpreter5testss_8test_nop
FNDA:1,_RNvNtNtCs7ty7gSeXD74_7aqa_asm11interpreter5testss_8test_ldr
FNDA:1,_RNvNtNtCs7ty7gSeXD74_7aqa_asm11interpreter5testss_8test_str
FNDA:1,_RNvNtNtCs7ty7gSeXD74_7aqa_asm11interpreter5testss_8test_add
FNDA:1,_RNvNtNtCs7ty7gSeXD74_7aqa_asm11interpreter5testss_8test_sub
FNDA:1,_RNvNtNtCs7ty7gSeXD74_7aqa_asm11interpreter5testss_8test_mov
FNDA:1,_RNvNtNtCs7ty7gSeXD74_7aqa_asm11interpreter5testss_22test_cmp_equal_numbers
FNDA:1,_RNvNtNtCs7ty7gSeXD74_7aqa_asm11interpreter5testss_21test_cmp_greater_than
FNDA:1,_RNvNtNtCs7ty7gSeXD74_7aqa_asm11interpreter5testss_18test_cmp_less_than
FNDA:1,_RNvNtNtCs7ty7gSeXD74_7aqa_asm11interpreter5testss_25test_unconditional_branch
FNDA:1,_RNvNtNtCs7ty7gSeXD74_7aqa_asm11interpreter5testss_8test_beq
FNDA:1,_RNvNtNtCs7ty7gSeXD74_7aqa_asm11interpreter5testss_8test_bne
FNDA:1,_RNvNtNtCs7ty7gSeXD74_7aqa_asm11interpreter5testss_8test_bgt
FNDA:1,_RNvNtNtCs7ty7gSeXD74_7aqa_asm11interpreter5testss_8test_blt
FNDA:1,_RNvNtNtCs7ty7gSeXD74_7aqa_asm11interpreter5testss_8test_and
FNDA:1,_RNvNtNtCs7ty7gSeXD74_7aqa_asm11interpreter5testss_8test_orr
FNDA:1,_RNvNtNtCs7ty7gSeXD74_7aqa_asm11interpreter5testss_8test_eor
FNDA:1,_RNvNtNtCs7ty7gSeXD74_7aqa_asm11interpreter5testss_8test_mvn
FNDA:1,_RNvNtNtCs7ty7gSeXD74_7aqa_asm11interpreter5testss_8test_lsl
FNDA:1,_RNvNtNtCs7ty7gSeXD74_7aqa_asm11interpreter5testss_8test_lsr
FNDA:1,_RNvNtNtCs7ty7gSeXD74_7aqa_asm11interpreter5testss_9test_halt
FNDA:1,_RNvNtNtCs7ty7gSeXD74_7aqa_asm11interpreter5testss_23test_out_of_bounds_read
FNDA:1,_RNvNtNtCs7ty7gSeXD74_7aqa_asm11interpreter5testss_24test_out_of_bounds_write
FNDA:1,_RNvNtNtCs7ty7gSeXD74_7aqa_asm11interpreter5testss_24test_read_past_of_memory
FNF:62
FNH:57
DA:26,23
DA:27,23
DA:28,23
DA:29,23
DA:30,23
DA:31,23
DA:32,23
DA:33,23
DA:34,23
DA:35,23
DA:36,23
DA:37,23
DA:38,23
DA:39,23
DA:40,20
DA:41,23
DA:43,33
DA:45,71
DA:47,70
DA:48,70
DA:49,0
DA:50,0
DA:51,0
DA:54,70
DA:55,1
DA:56,2
DA:57,2
DA:58,1
DA:59,1
DA:60,1
DA:61,1
DA:62,1
DA:63,1
DA:64,3
DA:65,3
DA:66,1
DA:67,2
DA:68,2
DA:69,3
DA:70,3
DA:71,1
DA:72,1
DA:73,1
DA:74,1
DA:75,1
DA:76,1
DA:77,1
DA:78,1
DA:79,1
DA:80,1
DA:81,1
DA:82,1
DA:83,0
DA:84,0
DA:85,0
DA:86,0
DA:87,30
DA:88,30
DA:89,30
DA:90,30
DA:91,33
DA:93,146
DA:94,146
DA:95,1
DA:96,145
DA:97,145
DA:98,145
DA:99,145
DA:100,145
DA:102,0
DA:104,146
DA:106,2
DA:107,2
DA:108,1
DA:109,1
DA:111,2
DA:113,2
DA:114,2
DA:115,1
DA:116,1
DA:117,1
DA:119,1
DA:121,2
DA:123,0
DA:125,0
DA:126,0
DA:127,0
DA:128,0
DA:130,0
DA:131,0
DA:132,0
DA:134,0
DA:136,2
DA:137,2
DA:138,2
DA:139,2
DA:140,1
DA:141,2
DA:143,2
DA:144,2
DA:145,2
DA:146,2
DA:147,1
DA:148,2
DA:150,1
DA:151,1
DA:152,1
DA:153,1
DA:154,1
DA:155,1
DA:156,1
DA:158,1
DA:159,1
DA:160,1
DA:161,1
DA:162,1
DA:163,1
DA:164,1
DA:166,1
DA:167,1
DA:168,1
DA:169,1
DA:170,1
DA:171,1
DA:172,1
DA:174,1
DA:175,1
DA:176,1
DA:177,1
DA:178,1
DA:179,1
DA:180,1
DA:182,1
DA:183,1
DA:184,1
DA:185,1
DA:186,1
DA:187,1
DA:189,1
DA:190,1
DA:191,1
DA:192,1
DA:193,1
DA:194,1
DA:196,3
DA:197,3
DA:198,3
DA:199,3
DA:200,3
DA:201,3
DA:202,3
DA:203,3
DA:205,3
DA:206,3
DA:207,3
DA:208,3
DA:209,3
DA:210,3
DA:211,3
DA:213,1
DA:214,1
DA:215,1
DA:216,1
DA:217,1
DA:219,2
DA:220,2
DA:221,1
DA:222,1
DA:223,1
DA:224,1
DA:225,1
DA:226,2
DA:227,2
DA:229,2
DA:230,2
DA:231,1
DA:232,1
DA:233,1
DA:234,1
DA:235,1
DA:236,2
DA:237,2
DA:239,3
DA:240,3
DA:241,1
DA:242,1
DA:243,2
DA:244,2
DA:245,2
DA:246,3
DA:247,3
DA:249,3
DA:250,3
DA:251,1
DA:252,1
DA:253,2
DA:254,2
DA:255,2
DA:256,3
DA:257,3
DA:259,1
DA:260,1
DA:261,1
DA:262,1
DA:263,1
DA:264,1
DA:265,1
DA:267,1
DA:268,1
DA:269,1
DA:270,1
DA:271,1
DA:272,1
DA:273,1
DA:275,1
DA:276,1
DA:277,1
DA:278,1
DA:279,1
DA:280,1
DA:281,1
DA:283,1
DA:284,1
DA:285,1
DA:286,1
DA:287,1
DA:288,1
DA:289,1
DA:291,1
DA:292,1
DA:293,1
DA:294,1
DA:295,1
DA:296,1
DA:297,1
DA:299,1
DA:300,1
DA:301,1
DA:302,1
DA:303,1
DA:304,1
DA:305,1
DA:307,1
DA:308,1
DA:309,1
DA:310,1
DA:311,1
DA:312,1
DA:314,1
DA:315,1
DA:316,1
DA:317,1
DA:318,1
DA:319,1
DA:321,1
DA:322,1
DA:323,1
DA:324,1
DA:325,1
DA:326,1
DA:327,1
DA:329,1
DA:330,1
DA:331,1
DA:332,1
DA:333,1
DA:334,1
DA:335,1
DA:337,1
DA:338,1
DA:339,1
DA:340,1
DA:341,1
DA:342,1
DA:343,1
DA:345,1
DA:346,1
DA:347,1
DA:348,1
DA:349,1
DA:350,1
DA:351,1
DA:353,0
DA:354,0
DA:355,0
DA:356,0
DA:357,0
DA:359,0
DA:360,0
DA:361,0
DA:362,0
DA:363,0
DA:365,0
DA:366,0
DA:367,0
DA:368,0
DA:369,0
DA:371,0
DA:372,0
DA:373,0
DA:374,0
DA:375,0
DA:382,27
DA:383,27
DA:384,27
DA:385,27
DA:386,27
DA:389,1
DA:390,1
DA:391,1
DA:392,1
DA:393,1
DA:394,1
DA:395,1
DA:396,1
DA:397,1
DA:398,1
DA:401,1
DA:402,1
DA:403,1
DA:404,1
DA:405,1
DA:406,1
DA:407,1
DA:410,1
DA:411,1
DA:412,1
DA:413,1
DA:414,1
DA:415,1
DA:416,1
DA:417,1
DA:420,1
DA:421,1
DA:422,1
DA:423,1
DA:424,1
DA:425,1
DA:426,1
DA:427,1
DA:428,1
DA:429,1
DA:430,1
DA:431,1
DA:432,1
DA:433,1
DA:434,1
DA:435,1
DA:436,1
DA:437,1
DA:440,1
DA:441,1
DA:442,1
DA:443,1
DA:444,1
DA:445,1
DA:446,1
DA:447,1
DA:448,1
DA:449,1
DA:450,1
DA:451,1
DA:452,1
DA:453,1
DA:454,1
DA:455,1
DA:456,1
DA:457,1
DA:458,1
DA:459,1
DA:462,1
DA:463,1
DA:464,1
DA:465,1
DA:466,1
DA:467,1
DA:468,1
DA:469,1
DA:470,1
DA:471,1
DA:472,1
DA:473,1
DA:474,1
DA:475,1
DA:476,1
DA:477,1
DA:480,1
DA:481,1
DA:482,1
DA:483,1
DA:484,1
DA:485,1
DA:486,1
DA:487,1
DA:488,1
DA:489,1
DA:490,1
DA:491,1
DA:492,1
DA:493,1
DA:496,1
DA:497,1
DA:498,1
DA:499,1
DA:500,1
DA:501,1
DA:502,1
DA:503,1
DA:504,1
DA:505,1
DA:506,1
DA:507,1
DA:510,1
DA:511,1
DA:512,1
DA:513,1
DA:514,1
DA:515,1
DA:516,1
DA:517,1
DA:518,1
DA:519,1
DA:520,1
DA:521,1
DA:522,1
DA:523,1
DA:524,1
DA:526,1
DA:527,1
DA:528,1
DA:529,1
DA:530,1
DA:531,1
DA:532,1
DA:533,1
DA:534,1
DA:535,1
DA:536,1
DA:537,1
DA:540,1
DA:541,1
DA:542,1
DA:543,1
DA:544,1
DA:545,1
DA:546,1
DA:547,1
DA:548,1
DA:549,1
DA:550,1
DA:551,1
DA:552,1
DA:553,1
DA:554,1
DA:557,1
DA:558,1
DA:559,1
DA:560,1
DA:561,1
DA:562,1
DA:563,1
DA:564,1
DA:565,1
DA:566,1
DA:567,1
DA:568,1
DA:571,1
DA:572,1
DA:573,1
DA:574,1
DA:575,1
DA:576,1
DA:577,1
DA:578,1
DA:579,1
DA:580,1
DA:581,1
DA:582,1
DA:583,1
DA:586,1
DA:587,1
DA:588,1
DA:589,1
DA:590,1
DA:591,1
DA:592,1
DA:593,1
DA:594,1
DA:595,1
DA:596,1
DA:597,1
DA:598,1
DA:599,1
DA:600,1
DA:601,1
DA:602,1
DA:603,1
DA:604,1
DA:605,1
DA:608,1
DA:609,1
DA:610,1
DA:611,1
DA:612,1
DA:615,1
DA:616,1
DA:617,1
DA:618,1
DA:619,1
DA:620,1
DA:621,1
DA:622,1
DA:623,1
DA:624,1
DA:625,1
DA:626,1
DA:627,1
DA:628,1
DA:629,1
DA:630,1
DA:631,1
DA:632,1
DA:633,1
DA:634,1
DA:637,1
DA:638,1
DA:639,1
DA:640,1
DA:641,1
DA:644,1
DA:645,1
DA:646,1
DA:647,1
DA:648,1
DA:649,1
DA:650,1
DA:651,1
DA:652,1
DA:653,1
DA:654,1
DA:655,1
DA:656,1
DA:657,1
DA:658,1
DA:659,1
DA:660,1
DA:661,1
DA:662,1
DA:663,1
DA:666,1
DA:667,1
DA:668,1
DA:669,1
DA:672,1
DA:673,1
DA:674,1
DA:675,1
DA:676,1
DA:677,1
DA:680,1
DA:681,1
DA:682,1
DA:683,1
DA:684,1
DA:685,1
DA:686,1
DA:687,1
DA:688,1
DA:689,1
DA:690,1
DA:691,1
DA:692,1
DA:693,1
DA:694,1
DA:695,1
DA:696,1
DA:697,1
DA:698,1
DA:699,1
DA:702,1
DA:703,1
DA:704,1
DA:705,1
DA:706,1
DA:709,1
DA:710,1
DA:711,1
DA:712,1
DA:713,1
DA:716,1
DA:717,1
DA:718,1
DA:719,1
DA:720,1
DA:721,1
DA:722,1
DA:723,1
DA:724,1
DA:725,1
DA:726,1
DA:727,1
DA:728,1
DA:729,1
DA:730,1
DA:731,1
DA:732,1
DA:733,1
DA:734,1
DA:735,1
DA:736,1
DA:739,1
DA:740,1
DA:741,1
DA:742,1
DA:743,1
DA:744,1
DA:745,1
DA:746,1
DA:747,1
DA:748,1
DA:749,1
DA:750,1
DA:751,1
DA:752,1
DA:753,1
DA:754,1
DA:755,1
DA:756,1
DA:757,1
DA:760,1
DA:761,1
DA:762,1
DA:763,1
DA:764,1
DA:765,1
DA:766,1
DA:767,1
DA:768,1
DA:769,1
DA:770,1
DA:771,1
DA:772,1
DA:773,1
DA:774,1
DA:775,1
DA:776,1
DA:777,1
DA:778,1
DA:779,1
DA:782,1
DA:783,1
DA:784,1
DA:785,1
DA:786,1
DA:787,1
DA:788,1
DA:789,1
DA:790,1
DA:791,1
DA:792,1
DA:793,1
DA:794,1
DA:795,1
DA:796,1
DA:797,1
DA:798,1
DA:799,1
DA:802,1
DA:803,1
DA:804,1
DA:805,1
DA:806,1
DA:807,1
DA:808,1
DA:809,1
DA:810,1
DA:811,1
DA:812,1
DA:813,1
DA:814,1
DA:815,1
DA:816,1
DA:817,1
DA:818,1
DA:819,1
DA:820,1
DA:821,1
DA:822,1
DA:825,1
DA:826,1
DA:827,1
DA:828,1
DA:829,1
DA:830,1
DA:831,1
DA:832,1
DA:833,1
DA:834,1
DA:835,1
DA:836,1
DA:837,1
DA:838,1
DA:839,1
DA:840,1
DA:841,1
DA:842,1
DA:843,1
DA:844,1
DA:845,1
DA:848,1
DA:849,1
DA:850,1
DA:851,1
DA:852,1
DA:853,1
DA:854,1
DA:855,1
DA:856,1
DA:857,1
DA:858,1
DA:859,1
DA:862,1
DA:863,1
DA:864,1
DA:865,1
DA:866,1
DA:867,1
DA:870,1
DA:873,1
DA:874,1
DA:875,1
DA:876,1
DA:877,1
DA:878,1
DA:881,1
DA:884,1
DA:885,1
DA:886,1
DA:887,1
DA:888,1
DA:889,1
DA:892,1
BRF:0
BRH:0
LF:742
LH:705
end_of_record
SF:/home/william/Desktop/AQA-ASM/src/main.rs
FN:21,_RNCNvXs0_Cs7ty7gSeXD74_7aqa_asmNtB7_4ArgsNtNtCsjQppZAL0ucn_12clap_builder6derive14FromArgMatches20from_arg_matches_mut0B7_
FN:25,_RNCNvXs0_Cs7ty7gSeXD74_7aqa_asmNtB7_4ArgsNtNtCsjQppZAL0ucn_12clap_builder6derive14FromArgMatches20from_arg_matches_muts_0B7_
FN:21,_RNCNvXs0_Cs7ty7gSeXD74_7aqa_asmNtB7_4ArgsNtNtCsjQppZAL0ucn_12clap_builder6derive14FromArgMatches27update_from_arg_matches_mut0B7_
FN:25,_RNCNvXs0_Cs7ty7gSeXD74_7aqa_asmNtB7_4ArgsNtNtCsjQppZAL0ucn_12clap_builder6derive14FromArgMatches27update_from_arg_matches_muts_0B7_
FN:24,_RNCNvXs1_Cs7ty7gSeXD74_7aqa_asmNtB7_4ArgsNtNtCsjQppZAL0ucn_12clap_builder6derive4Args12augment_args0B7_
FN:24,_RNCNvXs1_Cs7ty7gSeXD74_7aqa_asmNtB7_4ArgsNtNtCsjQppZAL0ucn_12clap_builder6derive4Args23augment_args_for_update0B7_
FN:53,_RNvCs7ty7gSeXD74_7aqa_asm4main
FN:173,_RNCNvCs7ty7gSeXD74_7aqa_asm4main0B3_
FNDA:0,_RNCNvXs0_Cs7ty7gSeXD74_7aqa_asmNtB7_4ArgsNtNtCsjQppZAL0ucn_12clap_builder6derive14FromArgMatches20from_arg_matches_mut0B7_
FNDA:0,_RNCNvXs0_Cs7ty7gSeXD74_7aqa_asmNtB7_4ArgsNtNtCsjQppZAL0ucn_12clap_builder6derive14FromArgMatches20from_arg_matches_muts_0B7_
FNDA:0,_RNCNvXs0_Cs7ty7gSeXD74_7aqa_asmNtB7_4ArgsNtNtCsjQppZAL0ucn_12clap_builder6derive14FromArgMatches27update_from_arg_matches_mut0B7_
FNDA:0,_RNCNvXs0_Cs7ty7gSeXD74_7aqa_asmNtB7_4ArgsNtNtCsjQppZAL0ucn_12clap_builder6derive14FromArgMatches27update_from_arg_matches_muts_0B7_
FNDA:0,_RNCNvXs1_Cs7ty7gSeXD74_7aqa_asmNtB7_4ArgsNtNtCsjQppZAL0ucn_12clap_builder6derive4Args12augment_args0B7_
FNDA:0,_RNCNvXs1_Cs7ty7gSeXD74_7aqa_asmNtB7_4ArgsNtNtCsjQppZAL0ucn_12clap_builder6derive4Args23augment_args_for_update0B7_
FNDA:0,_RNvCs7ty7gSeXD74_7aqa_asm4main
FNDA:0,_RNCNvCs7ty7gSeXD74_7aqa_asm4main0B3_
FNF:5
FNH:0
DA:21,0
DA:24,0
DA:25,0
DA:53,0
DA:54,0
DA:55,0
DA:56,0
DA:57,0
DA:60,0
DA:61,0
DA:62,0
DA:63,0
DA:64,0
DA:69,0
DA:70,0
DA:71,0
DA:72,0
DA:73,0
DA:74,0
DA:75,0
DA:77,0
DA:78,0
DA:79,0
DA:80,0
DA:81,0
DA:82,0
DA:83,0
DA:84,0
DA:85,0
DA:86,0
DA:87,0
DA:88,0
DA:89,0
DA:90,0
DA:91,0
DA:92,0
DA:93,0
DA:94,0
DA:95,0
DA:96,0
DA:97,0
DA:98,0
DA:99,0
DA:100,0
DA:102,0
DA:103,0
DA:104,0
DA:105,0
DA:106,0
DA:107,0
DA:108,0
DA:109,0
DA:110,0
DA:112,0
DA:113,0
DA:114,0
DA:115,0
DA:116,0
DA:117,0
DA:118,0
DA:119,0
DA:120,0
DA:121,0
DA:122,0
DA:123,0
DA:124,0
DA:125,0
DA:126,0
DA:127,0
DA:128,0
DA:129,0
DA:130,0
DA:131,0
DA:132,0
DA:133,0
DA:134,0
DA:135,0
DA:137,0
DA:142,0
DA:143,0
DA:144,0
DA:145,0
DA:146,0
DA:147,0
DA:148,0
DA:149,0
DA:150,0
DA:151,0
DA:152,0
DA:153,0
DA:154,0
DA:155,0
DA:156,0
DA:157,0
DA:158,0
DA:159,0
DA:160,0
DA:161,0
DA:162,0
DA:163,0
DA:164,0
DA:165,0
DA:166,0
DA:167,0
DA:168,0
DA:169,0
DA:171,0
DA:172,0
DA:173,0
DA:174,0
DA:175,0
DA:176,0
DA:177,0
DA:178,0
DA:179,0
DA:180,0
DA:181,0
DA:182,0
DA:185,0
DA:186,0
DA:187,0
DA:188,0
DA:189,0
DA:190,0
DA:191,0
DA:192,0
DA:193,0
DA:194,0
DA:195,0
DA:196,0
DA:197,0
DA:198,0
DA:199,0
DA:200,0
DA:203,0
DA:204,0
DA:205,0
DA:206,0
DA:207,0
DA:208,0
DA:209,0
DA:210,0
DA:212,0
DA:213,0
DA:214,0
DA:215,0
DA:216,0
DA:217,0
DA:221,0
DA:226,0
DA:227,0
DA:228,0
DA:229,0
DA:230,0
DA:231,0
DA:232,0
DA:233,0
DA:234,0
DA:235,0
DA:236,0
DA:237,0
DA:238,0
DA:240,0
DA:241,0
DA:242,0
DA:243,0
BRF:0
BRH:0
LF:167
LH:0
end_of_record
SF:/home/william/Desktop/AQA-ASM/src/parser.rs
FN:197,_RNCNvMNtCs7ty7gSeXD74_7aqa_asm6parserNtB4_6Parser12parse_opcode0B6_
FN:40,_RNvMNtCs7ty7gSeXD74_7aqa_asm6parserNtB2_6Parser5parse
FN:54,_RNvMNtCs7ty7gSeXD74_7aqa_asm6parserNtB2_6Parser14internal_parse
FN:87,_RNvMNtCs7ty7gSeXD74_7aqa_asm6parserNtB2_6Parser13consume_token
FN:101,_RNvMNtCs7ty7gSeXD74_7aqa_asm6parserNtB2_6Parser22consume_line_delimeter
FN:114,_RNvMNtCs7ty7gSeXD74_7aqa_asm6parserNtB2_6Parser15consume_operand
FN:140,_RNvMNtCs7ty7gSeXD74_7aqa_asm6parserNtB2_6Parser12write_memory
FN:145,_RNvMNtCs7ty7gSeXD74_7aqa_asm6parserNtB2_6Parser12parse_opcode
FN:215,_RNCNvNtNtCs7ty7gSeXD74_7aqa_asm6parser5tests29create_tokens_from_token_type0B7_
FN:262,_RNCNvNtNtCs7ty7gSeXD74_7aqa_asm6parser5testss_27test_all_valid_instructions0B7_
FN:212,_RNvNtNtCs7ty7gSeXD74_7aqa_asm6parser5tests29create_tokens_from_token_type
FN:225,_RNvNtNtCs7ty7gSeXD74_7aqa_asm6parser5testss_27test_all_valid_instructions
FN:268,_RNvNtNtCs7ty7gSeXD74_7aqa_asm6parser5testss_27test_missing_line_delimeter
FN:286,_RNvNtNtCs7ty7gSeXD74_7aqa_asm6parser5testss_20test_expected_opcode
FN:296,_RNvNtNtCs7ty7gSeXD74_7aqa_asm6parser5testss_21test_unexpected_token
FN:310,_RNvNtNtCs7ty7gSeXD74_7aqa_asm6parser5testss_21test_expected_operand
FN:320,_RNvNtNtCs7ty7gSeXD74_7aqa_asm6parser5testss_18test_invalid_label
FNDA:2,_RNCNvMNtCs7ty7gSeXD74_7aqa_asm6parserNtB4_6Parser12parse_opcode0B6_
FNDA:38,_RNvMNtCs7ty7gSeXD74_7aqa_asm6parserNtB2_6Parser5parse
FNDA:38,_RNvMNtCs7ty7gSeXD74_7aqa_asm6parserNtB2_6Parser14internal_parse
FNDA:56,_RNvMNtCs7ty7gSeXD74_7aqa_asm6parserNtB2_6Parser13consume_token
FNDA:34,_RNvMNtCs7ty7gSeXD74_7aqa_asm6parserNtB2_6Parser22consume_line_delimeter
FNDA:103,_RNvMNtCs7ty7gSeXD74_7aqa_asm6parserNtB2_6Parser15consume_operand
FNDA:104,_RNvMNtCs7ty7gSeXD74_7aqa_asm6parserNtB2_6Parser12write_memory
FNDA:37,_RNvMNtCs7ty7gSeXD74_7aqa_asm6parserNtB2_6Parser12parse_opcode
FNDA:217,_RNCNvNtNtCs7ty7gSeXD74_7aqa_asm6parser5tests29create_tokens_from_token_type0B7_
FNDA:100,_RNCNvNtNtCs7ty7gSeXD74_7aqa_asm6parser5testss_27test_all_valid_instructions0B7_
FNDA:38,_RNvNtNtCs7ty7gSeXD74_7aqa_asm6parser5tests29create_tokens_from_token_type
FNDA:1,_RNvNtNtCs7ty7gSeXD74_7aqa_asm6parser5testss_27test_all_valid_instructions
FNDA:1,_RNvNtNtCs7ty7gSeXD74_7aqa_asm6parser5testss_27test_missing_line_delimeter
FNDA:1,_RNvNtNtCs7ty7gSeXD74_7aqa_asm6parser5testss_20test_expected_opcode
FNDA:1,_RNvNtNtCs7ty7gSeXD74_7aqa_asm6parser5testss_21test_unexpected_token
FNDA:1,_RNvNtNtCs7ty7gSeXD74_7aqa_asm6parser5testss_21test_expected_operand
FNDA:1,_RNvNtNtCs7ty7gSeXD74_7aqa_asm6parser5testss_18test_invalid_label
FNF:17
FNH:17
DA:40,38
DA:41,38
DA:42,38
DA:43,38
DA:44,38
DA:45,38
DA:46,38
DA:47,38
DA:48,38
DA:49,38
DA:50,38
DA:51,33
DA:52,38
DA:54,38
DA:62,104
DA:63,104
DA:64,104
DA:65,104
DA:66,104
DA:67,33
DA:68,71
DA:69,71
DA:70,71
DA:71,71
DA:72,71
DA:73,71
DA:74,71
DA:75,37
DA:76,37
DA:77,34
DA:79,33
DA:80,1
DA:83,33
DA:84,38
DA:87,56
DA:88,56
DA:89,56
DA:90,55
DA:91,55
DA:93,1
DA:94,1
DA:95,1
DA:96,1
DA:98,56
DA:101,34
DA:102,34
DA:103,34
DA:104,33
DA:106,1
DA:107,1
DA:108,1
DA:111,34
DA:114,103
DA:115,103
DA:116,95
DA:119,6
DA:120,5
DA:121,5
DA:123,1
DA:124,1
DA:125,1
DA:129,95
DA:130,83
DA:131,83
DA:133,14
DA:134,14
DA:135,14
DA:136,14
DA:138,103
DA:140,104
DA:141,104
DA:142,104
DA:143,104
DA:145,37
DA:146,37
DA:147,37
DA:148,37
DA:149,50
DA:151,50
DA:152,2
DA:153,2
DA:154,48
DA:155,48
DA:156,48
DA:157,48
DA:158,103
DA:160,103
DA:161,88
DA:162,88
DA:163,88
DA:164,88
DA:165,1
DA:166,1
DA:174,14
DA:175,13
DA:176,13
DA:177,14
DA:178,14
DA:182,88
DA:183,32
DA:184,102
DA:185,70
DA:186,70
DA:187,32
DA:189,56
DA:195,1
DA:196,1
DA:197,2
DA:198,1
DA:199,1
DA:200,1
DA:201,1
DA:202,1
DA:203,37
DA:212,38
DA:213,38
DA:214,38
DA:215,217
DA:216,217
DA:217,217
DA:218,217
DA:219,217
DA:220,217
DA:221,38
DA:222,38
DA:225,1
DA:226,22
DA:227,21
DA:228,54
DA:230,33
DA:231,67
DA:232,67
DA:233,67
DA:234,36
DA:235,36
DA:237,33
DA:238,33
DA:239,33
DA:240,33
DA:241,67
DA:242,67
DA:243,67
DA:245,33
DA:246,33
DA:247,33
DA:248,33
DA:249,33
DA:250,33
DA:251,33
DA:252,33
DA:253,33
DA:254,33
DA:255,33
DA:256,33
DA:257,33
DA:258,33
DA:259,33
DA:260,33
DA:261,33
DA:262,100
DA:265,1
DA:268,1
DA:269,1
DA:270,1
DA:271,1
DA:272,1
DA:273,1
DA:274,1
DA:275,1
DA:276,1
DA:277,1
DA:278,1
DA:279,1
DA:280,1
DA:283,1
DA:286,1
DA:287,1
DA:288,1
DA:289,1
DA:290,1
DA:293,1
DA:296,1
DA:297,1
DA:298,1
DA:299,1
DA:300,1
DA:301,1
DA:302,1
DA:303,1
DA:304,1
DA:307,1
DA:310,1
DA:311,1
DA:312,1
DA:313,1
DA:314,1
DA:317,1
DA:320,1
DA:321,1
DA:322,1
DA:323,1
DA:324,1
DA:325,1
DA:326,1
DA:327,1
DA:330,1
BRF:0
BRH:0
LF:210
LH:210
end_of_record
SF:/home/william/Desktop/AQA-ASM/src/tokenizer.rs
FN:542,_RNCNvMs2_NtCs7ty7gSeXD74_7aqa_asm9tokenizerNtB7_9Tokenizer10consume_u80B9_
FN:793,_RNCNvNtNtCs7ty7gSeXD74_7aqa_asm9tokenizer5tests19extract_token_types0B7_
FN:800,_RNCNvNtNtCs7ty7gSeXD74_7aqa_asm9tokenizer5tests33extract_token_line_column_numbers0B7_
FN:101,_RNvMNtCs7ty7gSeXD74_7aqa_asm9tokenizerNtB2_14AssemblyOpcode19got_operand_formats
FN:288,_RNvXs_NtCs7ty7gSeXD74_7aqa_asm9tokenizerNtB4_14AssemblyOpcodeNtNtNtCs5cYH0lLSdLc_4core3str6traits7FromStr8from_str
FN:357,_RNvXs0_NtCs7ty7gSeXD74_7aqa_asm9tokenizerNtB5_12BinaryOpcodeINtNtCs5cYH0lLSdLc_4core7convert7TryFromhE8try_from
FN:417,_RNvMs1_NtCs7ty7gSeXD74_7aqa_asm9tokenizerNtB5_5Token20get_token_debug_repr
FN:438,_RNvMs2_NtCs7ty7gSeXD74_7aqa_asm9tokenizerNtB5_9Tokenizer8tokenize
FN:468,_RNvMs2_NtCs7ty7gSeXD74_7aqa_asm9tokenizerNtB5_9Tokenizer16interal_tokenize
FN:506,_RNvMs2_NtCs7ty7gSeXD74_7aqa_asm9tokenizerNtB5_9Tokenizer4next
FN:522,_RNvMs2_NtCs7ty7gSeXD74_7aqa_asm9tokenizerNtB5_9Tokenizer22inc_program_byte_count
FN:538,_RNvMs2_NtCs7ty7gSeXD74_7aqa_asm9tokenizerNtB5_9Tokenizer10consume_u8
FN:569,_RNvMs2_NtCs7ty7gSeXD74_7aqa_asm9tokenizerNtB5_9Tokenizer18consume_identifier
FN:582,_RNvMs2_NtCs7ty7gSeXD74_7aqa_asm9tokenizerNtB5_9Tokenizer26tokenize_single_char_token
FN:595,_RNvMs2_NtCs7ty7gSeXD74_7aqa_asm9tokenizerNtB5_9Tokenizer19tokenize_memory_ref
FN:610,_RNvMs2_NtCs7ty7gSeXD74_7aqa_asm9tokenizerNtB5_9Tokenizer16tokenize_literal
FN:640,_RNvMs2_NtCs7ty7gSeXD74_7aqa_asm9tokenizerNtB5_9Tokenizer20tokenizer_identifier
FN:738,_RNvMs2_NtCs7ty7gSeXD74_7aqa_asm9tokenizerNtB5_9Tokenizer7comment
FN:75,_RNvMsm_NtCs7ty7gSeXD74_7aqa_asm9tokenizerNtB5_18AssemblyOpcodeIter3get
FN:75,_RNvXsn_NtCs7ty7gSeXD74_7aqa_asm9tokenizerNtB5_14AssemblyOpcodeNtCsgmCJ1Qiofp8_5strum16IntoEnumIterator4iter
FN:75,_RNvXso_NtCs7ty7gSeXD74_7aqa_asm9tokenizerNtB5_18AssemblyOpcodeIterNtNtNtNtCs5cYH0lLSdLc_4core4iter6traits8iterator8Iterator4next
FN:75,_RNvXso_NtCs7ty7gSeXD74_7aqa_asm9tokenizerNtB5_18AssemblyOpcodeIterNtNtNtNtCs5cYH0lLSdLc_4core4iter6traits8iterator8Iterator3nth
FN:75,_RNvXsl_NtCs7ty7gSeXD74_7aqa_asm9tokenizerNtB5_18AssemblyOpcodeIterNtNtCs5cYH0lLSdLc_4core3fmt5Debug3fmt
FN:75,_RNvXso_NtCs7ty7gSeXD74_7aqa_asm9tokenizerNtB5_18AssemblyOpcodeIterNtNtNtNtCs5cYH0lLSdLc_4core4iter6traits8iterator8Iterator9size_hint
FN:75,_RNvXsp_NtCs7ty7gSeXD74_7aqa_asm9tokenizerNtB5_18AssemblyOpcodeIterNtNtNtNtCs5cYH0lLSdLc_4core4iter6traits10exact_size17ExactSizeIterator3len
FN:75,_RNvXsq_NtCs7ty7gSeXD74_7aqa_asm9tokenizerNtB5_18AssemblyOpcodeIterNtNtNtNtCs5cYH0lLSdLc_4core4iter6traits12double_ended19DoubleEndedIterator9next_back
FN:75,_RNvXss_NtCs7ty7gSeXD74_7aqa_asm9tokenizerNtB5_18AssemblyOpcodeIterNtNtCs5cYH0lLSdLc_4core5clone5Clone5clone
FN:792,_RNvNtNtCs7ty7gSeXD74_7aqa_asm9tokenizer5tests19extract_token_types
FN:797,_RNvNtNtCs7ty7gSeXD74_7aqa_asm9tokenizer5tests33extract_token_line_column_numbers
FN:805,_RNvNtNtCs7ty7gSeXD74_7aqa_asm9tokenizer5tests24test_token_type_sequence
FN:821,_RNvNtNtCs7ty7gSeXD74_7aqa_asm9tokenizer5testss_25test_get_token_debug_repr
FN:856,_RNvNtNtCs7ty7gSeXD74_7aqa_asm9tokenizer5testss_29test_assembly_opcode_from_str
FN:897,_RNvNtNtCs7ty7gSeXD74_7aqa_asm9tokenizer5testss_26test_binary_opcode_from_u8
FN:942,_RNvNtNtCs7ty7gSeXD74_7aqa_asm9tokenizer5testss_20test_tokens_isolated
FN:978,_RNvNtNtCs7ty7gSeXD74_7aqa_asm9tokenizer5testss_24test_comment_line_single
FN:986,_RNvNtNtCs7ty7gSeXD74_7aqa_asm9tokenizer5testss_27test_comment_line_multiline
FN:994,_RNvNtNtCs7ty7gSeXD74_7aqa_asm9tokenizer5testss_28test_comment_block_multiline
FN:1006,_RNvNtNtCs7ty7gSeXD74_7aqa_asm9tokenizer5testss_18test_empty_program
FN:1011,_RNvNtNtCs7ty7gSeXD74_7aqa_asm9tokenizer5testss_28test_missing_register_number
FN:1019,_RNvNtNtCs7ty7gSeXD74_7aqa_asm9tokenizer5testss_27test_missing_literal_number
FN:1027,_RNvNtNtCs7ty7gSeXD74_7aqa_asm9tokenizer5testss_31test_unterminated_block_comment
FN:1041,_RNvNtNtCs7ty7gSeXD74_7aqa_asm9tokenizer5testss_28test_invalid_comment_denoter
FN:1046,_RNvNtNtCs7ty7gSeXD74_7aqa_asm9tokenizer5testss_32test_duplicate_label_definitions
FN:1057,_RNvNtNtCs7ty7gSeXD74_7aqa_asm9tokenizer5testss_28test_invalid_register_number
FN:1062,_RNvNtNtCs7ty7gSeXD74_7aqa_asm9tokenizer5testss_22test_too_large_program
FN:1067,_RNvNtNtCs7ty7gSeXD74_7aqa_asm9tokenizer5testss_47test_label_definition_not_after_line_delimeters
FN:1075,_RNvNtNtCs7ty7gSeXD74_7aqa_asm9tokenizer5testss_31test_memory_reference_too_large
FN:1080,_RNvNtNtCs7ty7gSeXD74_7aqa_asm9tokenizer5testss_28test_literal_value_too_large
FN:1085,_RNvNtNtCs7ty7gSeXD74_7aqa_asm9tokenizer5testss_23test_invalid_characters
FN:1091,_RNvNtNtCs7ty7gSeXD74_7aqa_asm9tokenizer5testss_26test_line_col_calculations
FNDA:21,_RNCNvMs2_NtCs7ty7gSeXD74_7aqa_asm9tokenizerNtB7_9Tokenizer10consume_u80B9_
FNDA:64,_RNCNvNtNtCs7ty7gSeXD74_7aqa_asm9tokenizer5tests19extract_token_types0B7_
FNDA:30,_RNCNvNtNtCs7ty7gSeXD74_7aqa_asm9tokenizer5tests33extract_token_line_column_numbers0B7_
FNDA:58,_RNvMNtCs7ty7gSeXD74_7aqa_asm9tokenizerNtB2_14AssemblyOpcode19got_operand_formats
FNDA:330,_RNvXs_NtCs7ty7gSeXD74_7aqa_asm9tokenizerNtB4_14AssemblyOpcodeNtNtNtCs5cYH0lLSdLc_4core3str6traits7FromStr8from_str
FNDA:326,_RNvXs0_NtCs7ty7gSeXD74_7aqa_asm9tokenizerNtB5_12BinaryOpcodeINtNtCs5cYH0lLSdLc_4core7convert7TryFromhE8try_from
FNDA:3,_RNvMs1_NtCs7ty7gSeXD74_7aqa_asm9tokenizerNtB5_5Token20get_token_debug_repr
FNDA:45,_RNvMs2_NtCs7ty7gSeXD74_7aqa_asm9tokenizerNtB5_9Tokenizer8tokenize
FNDA:45,_RNvMs2_NtCs7ty7gSeXD74_7aqa_asm9tokenizerNtB5_9Tokenizer16interal_tokenize
FNDA:1558,_RNvMs2_NtCs7ty7gSeXD74_7aqa_asm9tokenizerNtB5_9Tokenizer4next
FNDA:312,_RNvMs2_NtCs7ty7gSeXD74_7aqa_asm9tokenizerNtB5_9Tokenizer22inc_program_byte_count
FNDA:22,_RNvMs2_NtCs7ty7gSeXD74_7aqa_asm9tokenizerNtB5_9Tokenizer10consume_u8
FNDA:310,_RNvMs2_NtCs7ty7gSeXD74_7aqa_asm9tokenizerNtB5_9Tokenizer18consume_identifier
FNDA:277,_RNvMs2_NtCs7ty7gSeXD74_7aqa_asm9tokenizerNtB5_9Tokenizer26tokenize_single_char_token
FNDA:4,_RNvMs2_NtCs7ty7gSeXD74_7aqa_asm9tokenizerNtB5_9Tokenizer19tokenize_memory_ref
FNDA:9,_RNvMs2_NtCs7ty7gSeXD74_7aqa_asm9tokenizerNtB5_9Tokenizer16tokenize_literal
FNDA:310,_RNvMs2_NtCs7ty7gSeXD74_7aqa_asm9tokenizerNtB5_9Tokenizer20tokenizer_identifier
FNDA:9,_RNvMs2_NtCs7ty7gSeXD74_7aqa_asm9tokenizerNtB5_9Tokenizer7comment
FNDA:21,_RNvMsm_NtCs7ty7gSeXD74_7aqa_asm9tokenizerNtB5_18AssemblyOpcodeIter3get
FNDA:1,_RNvXsn_NtCs7ty7gSeXD74_7aqa_asm9tokenizerNtB5_14AssemblyOpcodeNtCsgmCJ1Qiofp8_5strum16IntoEnumIterator4iter
FNDA:22,_RNvXso_NtCs7ty7gSeXD74_7aqa_asm9tokenizerNtB5_18AssemblyOpcodeIterNtNtNtNtCs5cYH0lLSdLc_4core4iter6traits8iterator8Iterator4next
FNDA:22,_RNvXso_NtCs7ty7gSeXD74_7aqa_asm9tokenizerNtB5_18AssemblyOpcodeIterNtNtNtNtCs5cYH0lLSdLc_4core4iter6traits8iterator8Iterator3nth
FNDA:0,_RNvXsl_NtCs7ty7gSeXD74_7aqa_asm9tokenizerNtB5_18AssemblyOpcodeIterNtNtCs5cYH0lLSdLc_4core3fmt5Debug3fmt
FNDA:0,_RNvXso_NtCs7ty7gSeXD74_7aqa_asm9tokenizerNtB5_18AssemblyOpcodeIterNtNtNtNtCs5cYH0lLSdLc_4core4iter6traits8iterator8Iterator9size_hint
FNDA:0,_RNvXsp_NtCs7ty7gSeXD74_7aqa_asm9tokenizerNtB5_18AssemblyOpcodeIterNtNtNtNtCs5cYH0lLSdLc_4core4iter6traits10exact_size17ExactSizeIterator3len
FNDA:0,_RNvXsq_NtCs7ty7gSeXD74_7aqa_asm9tokenizerNtB5_18AssemblyOpcodeIterNtNtNtNtCs5cYH0lLSdLc_4core4iter6traits12double_ended19DoubleEndedIterator9next_back
FNDA:0,_RNvXss_NtCs7ty7gSeXD74_7aqa_asm9tokenizerNtB5_18AssemblyOpcodeIterNtNtCs5cYH0lLSdLc_4core5clone5Clone5clone
FNDA:32,_RNvNtNtCs7ty7gSeXD74_7aqa_asm9tokenizer5tests19extract_token_types
FNDA:1,_RNvNtNtCs7ty7gSeXD74_7aqa_asm9tokenizer5tests33extract_token_line_column_numbers
FNDA:32,_RNvNtNtCs7ty7gSeXD74_7aqa_asm9tokenizer5tests24test_token_type_sequence
FNDA:1,_RNvNtNtCs7ty7gSeXD74_7aqa_asm9tokenizer5testss_25test_get_token_debug_repr
FNDA:1,_RNvNtNtCs7ty7gSeXD74_7aqa_asm9tokenizer5testss_29test_assembly_opcode_from_str
FNDA:1,_RNvNtNtCs7ty7gSeXD74_7aqa_asm9tokenizer5testss_26test_binary_opcode_from_u8
FNDA:1,_RNvNtNtCs7ty7gSeXD74_7aqa_asm9tokenizer5testss_20test_tokens_isolated
FNDA:1,_RNvNtNtCs7ty7gSeXD74_7aqa_asm9tokenizer5testss_24test_comment_line_single
FNDA:1,_RNvNtNtCs7ty7gSeXD74_7aqa_asm9tokenizer5testss_27test_comment_line_multiline
FNDA:1,_RNvNtNtCs7ty7gSeXD74_7aqa_asm9tokenizer5testss_28test_comment_block_multiline
FNDA:1,_RNvNtNtCs7ty7gSeXD74_7aqa_asm9tokenizer5testss_18test_empty_program
FNDA:1,_RNvNtNtCs7ty7gSeXD74_7aqa_asm9tokenizer5testss_28test_missing_register_number
FNDA:1,_RNvNtNtCs7ty7gSeXD74_7aqa_asm9tokenizer5testss_27test_missing_literal_number
FNDA:1,_RNvNtNtCs7ty7gSeXD74_7aqa_asm9tokenizer5testss_31test_unterminated_block_comment
FNDA:1,_RNvNtNtCs7ty7gSeXD74_7aqa_asm9tokenizer5testss_28test_invalid_comment_denoter
FNDA:1,_RNvNtNtCs7ty7gSeXD74_7aqa_asm9tokenizer5testss_32test_duplicate_label_definitions
FNDA:1,_RNvNtNtCs7ty7gSeXD74_7aqa_asm9tokenizer5testss_28test_invalid_register_number
FNDA:1,_RNvNtNtCs7ty7gSeXD74_7aqa_asm9tokenizer5testss_22test_too_large_program
FNDA:1,_RNvNtNtCs7ty7gSeXD74_7aqa_asm9tokenizer5testss_47test_label_definition_not_after_line_delimeters
FNDA:1,_RNvNtNtCs7ty7gSeXD74_7aqa_asm9tokenizer5testss_31test_memory_reference_too_large
FNDA:1,_RNvNtNtCs7ty7gSeXD74_7aqa_asm9tokenizer5testss_28test_literal_value_too_large
FNDA:1,_RNvNtNtCs7ty7gSeXD74_7aqa_asm9tokenizer5testss_23test_invalid_characters
FNDA:1,_RNvNtNtCs7ty7gSeXD74_7aqa_asm9tokenizer5testss_26test_line_col_calculations
FNF:42
FNH:42
DA:75,43
DA:101,58
DA:102,58
DA:103,2
DA:104,2
DA:105,2
DA:106,2
DA:107,2
DA:108,2
DA:109,2
DA:110,2
DA:111,2
DA:112,6
DA:113,6
DA:114,6
DA:115,6
DA:116,6
DA:117,6
DA:118,6
DA:119,6
DA:120,6
DA:121,6
DA:122,6
DA:123,6
DA:124,6
DA:125,6
DA:126,6
DA:127,6
DA:128,6
DA:129,6
DA:130,3
DA:131,3
DA:132,3
DA:133,3
DA:134,3
DA:135,3
DA:136,3
DA:137,3
DA:138,3
DA:139,3
DA:140,3
DA:141,3
DA:142,3
DA:143,3
DA:144,3
DA:145,3
DA:146,3
DA:147,3
DA:148,3
DA:149,3
DA:150,3
DA:151,3
DA:152,3
DA:153,3
DA:154,3
DA:155,3
DA:156,3
DA:157,3
DA:158,3
DA:159,3
DA:160,3
DA:161,3
DA:162,3
DA:163,3
DA:164,3
DA:165,3
DA:166,3
DA:167,3
DA:168,3
DA:169,2
DA:170,2
DA:171,2
DA:172,2
DA:173,3
DA:174,3
DA:175,3
DA:176,3
DA:177,3
DA:178,3
DA:179,3
DA:180,3
DA:181,3
DA:182,3
DA:183,3
DA:184,3
DA:185,3
DA:186,3
DA:187,3
DA:188,3
DA:189,3
DA:190,3
DA:191,3
DA:192,3
DA:193,3
DA:194,3
DA:195,3
DA:196,3
DA:197,3
DA:198,3
DA:199,3
DA:200,3
DA:201,3
DA:202,3
DA:203,3
DA:204,3
DA:205,3
DA:206,3
DA:207,3
DA:208,3
DA:209,3
DA:210,3
DA:211,3
DA:212,3
DA:213,3
DA:214,3
DA:215,3
DA:216,3
DA:217,3
DA:218,3
DA:219,3
DA:220,3
DA:221,3
DA:222,3
DA:223,3
DA:224,3
DA:225,3
DA:226,3
DA:227,3
DA:228,3
DA:229,3
DA:230,3
DA:231,3
DA:232,3
DA:233,3
DA:234,3
DA:235,3
DA:236,3
DA:237,3
DA:238,3
DA:239,3
DA:240,3
DA:241,3
DA:242,3
DA:243,3
DA:244,3
DA:245,3
DA:246,3
DA:247,3
DA:248,3
DA:249,3
DA:250,3
DA:251,3
DA:252,3
DA:253,3
DA:254,3
DA:255,3
DA:256,3
DA:257,3
DA:258,3
DA:259,3
DA:260,3
DA:261,3
DA:262,3
DA:263,3
DA:264,3
DA:265,3
DA:266,3
DA:267,3
DA:268,3
DA:269,3
DA:270,3
DA:271,3
DA:272,3
DA:273,2
DA:274,3
DA:275,3
DA:276,3
DA:277,3
DA:278,3
DA:279,3
DA:280,3
DA:281,3
DA:283,58
DA:288,330
DA:289,330
DA:290,330
DA:291,64
DA:292,61
DA:293,59
DA:294,57
DA:295,55
DA:296,46
DA:297,44
DA:298,42
DA:299,40
DA:300,38
DA:301,36
DA:302,34
DA:303,32
DA:304,30
DA:305,28
DA:306,26
DA:307,24
DA:308,22
DA:309,20
DA:310,18
DA:311,16
DA:313,330
DA:357,326
DA:358,326
DA:359,326
DA:360,324
DA:361,321
DA:362,318
DA:363,316
DA:364,314
DA:365,312
DA:366,310
DA:367,308
DA:368,306
DA:369,302
DA:370,298
DA:371,296
DA:372,293
DA:373,290
DA:374,286
DA:375,282
DA:376,280
DA:377,278
DA:378,276
DA:379,274
DA:380,272
DA:381,270
DA:382,268
DA:383,266
DA:384,264
DA:385,262
DA:386,260
DA:387,258
DA:388,257
DA:389,256
DA:390,255
DA:391,254
DA:392,223
DA:394,326
DA:417,3
DA:418,3
DA:419,1
DA:420,1
DA:421,1
DA:423,3
DA:438,45
DA:439,45
DA:440,45
DA:441,45
DA:442,45
DA:443,45
DA:444,45
DA:445,45
DA:446,45
DA:447,45
DA:448,45
DA:449,33
DA:450,45
DA:468,45
DA:470,705
DA:472,672
DA:473,62
DA:474,62
DA:475,610
DA:476,610
DA:477,610
DA:478,9
DA:479,9
DA:480,264
DA:481,4
DA:482,315
DA:483,9
DA:484,310
DA:486,1
DA:487,1
DA:488,1
DA:489,1
DA:490,1
DA:496,33
DA:497,33
DA:498,33
DA:499,33
DA:500,33
DA:501,33
DA:502,33
DA:503,45
DA:506,1558
DA:507,1558
DA:508,1557
DA:509,15
DA:510,15
DA:511,15
DA:512,15
DA:513,3
DA:514,1539
DA:516,1557
DA:517,1
DA:518,1
DA:519,1558
DA:522,312
DA:523,312
DA:524,1
DA:525,1
DA:526,1
DA:527,1
DA:528,1
DA:529,1
DA:530,1
DA:531,1
DA:532,311
DA:533,311
DA:534,311
DA:535,312
DA:538,22
DA:539,22
DA:540,22
DA:541,22
DA:542,22
DA:543,2
DA:544,20
DA:545,20
DA:546,20
DA:547,56
DA:548,50
DA:549,36
DA:550,36
DA:551,14
DA:553,36
DA:556,20
DA:557,18
DA:559,2
DA:560,2
DA:561,2
DA:562,2
DA:563,2
DA:566,22
DA:569,310
DA:570,310
DA:571,1256
DA:572,1233
DA:573,946
DA:574,287
DA:576,946
DA:578,310
DA:579,310
DA:582,277
DA:583,277
DA:584,277
DA:585,277
DA:586,277
DA:587,277
DA:588,277
DA:589,277
DA:590,277
DA:591,277
DA:592,277
DA:595,4
DA:596,4
DA:597,4
DA:598,4
DA:599,3
DA:600,3
DA:601,3
DA:602,3
DA:603,3
DA:604,3
DA:605,3
DA:606,3
DA:607,4
DA:610,9
DA:611,9
DA:612,9
DA:613,9
DA:614,9
DA:616,9
DA:617,8
DA:619,1
DA:620,1
DA:621,1
DA:622,1
DA:625,7
DA:626,7
DA:627,7
DA:628,7
DA:629,7
DA:630,7
DA:631,7
DA:632,7
DA:633,9
DA:640,310
DA:641,310
DA:642,310
DA:643,310
DA:644,310
DA:645,310
DA:646,9
DA:647,8
DA:649,1
DA:650,1
DA:651,1
DA:652,1
DA:655,8
DA:656,1
DA:657,1
DA:658,1
DA:659,1
DA:660,1
DA:661,7
DA:662,7
DA:663,7
DA:664,7
DA:665,7
DA:666,7
DA:667,7
DA:668,7
DA:669,7
DA:670,301
DA:673,301
DA:674,293
DA:675,293
DA:676,293
DA:677,293
DA:678,293
DA:679,293
DA:680,293
DA:681,292
DA:682,8
DA:683,8
DA:684,8
DA:685,8
DA:686,7
DA:687,6
DA:688,6
DA:689,6
DA:690,1
DA:691,5
DA:692,2
DA:693,1
DA:694,1
DA:695,1
DA:696,1
DA:697,1
DA:698,1
DA:699,1
DA:701,5
DA:702,5
DA:703,5
DA:704,5
DA:705,5
DA:706,5
DA:707,5
DA:708,5
DA:709,5
DA:710,5
DA:711,5
DA:713,1
DA:714,1
DA:715,1
DA:716,1
DA:717,1
DA:719,4
DA:720,4
DA:721,4
DA:723,2
DA:724,2
DA:725,2
DA:726,2
DA:727,2
DA:728,2
DA:729,2
DA:730,2
DA:731,2
DA:732,2
DA:733,2
DA:734,2
DA:735,310
DA:738,9
DA:739,9
DA:740,9
DA:741,9
DA:742,9
DA:745,2
DA:746,17
DA:747,16
DA:748,1
DA:749,15
DA:750,15
DA:751,15
DA:755,192
DA:756,191
DA:757,11
DA:758,10
DA:759,4
DA:760,4
DA:761,6
DA:763,1
DA:764,1
DA:765,1
DA:766,1
DA:768,180
DA:770,1
DA:771,1
DA:772,1
DA:773,1
DA:777,1
DA:778,1
DA:779,1
DA:780,1
DA:783,6
DA:784,9
DA:792,32
DA:793,64
DA:794,32
DA:797,1
DA:798,1
DA:799,1
DA:800,30
DA:801,1
DA:802,1
DA:805,32
DA:806,32
DA:807,32
DA:808,32
DA:821,1
DA:822,3
DA:823,1
DA:824,1
DA:825,1
DA:826,1
DA:827,1
DA:828,1
DA:829,1
DA:830,1
DA:831,1
DA:832,1
DA:833,1
DA:834,1
DA:835,1
DA:836,1
DA:837,1
DA:838,1
DA:839,1
DA:840,1
DA:841,1
DA:842,1
DA:843,1
DA:844,1
DA:845,1
DA:846,1
DA:847,1
DA:848,1
DA:849,1
DA:851,3
DA:853,1
DA:856,1
DA:857,29
DA:859,1
DA:860,1
DA:861,1
DA:862,1
DA:863,1
DA:864,1
DA:865,1
DA:866,1
DA:867,1
DA:868,1
DA:869,1
DA:870,1
DA:871,1
DA:872,1
DA:873,1
DA:874,1
DA:875,1
DA:876,1
DA:877,1
DA:878,1
DA:879,1
DA:880,1
DA:881,1
DA:882,1
DA:883,1
DA:884,1
DA:885,1
DA:886,1
DA:887,1
DA:888,1
DA:889,1
DA:890,1
DA:892,29
DA:894,1
DA:897,1
DA:898,33
DA:899,1
DA:900,1
DA:901,1
DA:902,1
DA:903,1
DA:904,1
DA:905,1
DA:906,1
DA:907,1
DA:908,1
DA:909,1
DA:910,1
DA:911,1
DA:912,1
DA:913,1
DA:914,1
DA:915,1
DA:916,1
DA:917,1
DA:918,1
DA:919,1
DA:920,1
DA:921,1
DA:922,1
DA:923,1
DA:924,1
DA:925,1
DA:926,1
DA:927,1
DA:928,1
DA:929,1
DA:930,1
DA:931,1
DA:933,33
DA:936,224
DA:937,223
DA:939,1
DA:942,1
DA:943,28
DA:944,1
DA:945,1
DA:946,1
DA:947,1
DA:948,1
DA:949,1
DA:950,1
DA:951,1
DA:952,1
DA:953,1
DA:954,1
DA:955,1
DA:956,1
DA:957,1
DA:958,1
DA:959,1
DA:960,1
DA:961,1
DA:962,1
DA:963,1
DA:964,1
DA:965,1
DA:966,1
DA:967,1
DA:968,1
DA:969,1
DA:970,1
DA:971,1
DA:972,28
DA:973,28
DA:974,28
DA:975,1
DA:978,1
DA:979,1
DA:980,1
DA:981,1
DA:982,1
DA:983,1
DA:986,1
DA:987,1
DA:988,1
DA:989,1
DA:990,1
DA:991,1
DA:994,1
DA:995,1
DA:996,1
DA:997,1
DA:998,1
DA:999,1
DA:1000,1
DA:1001,1
DA:1002,1
DA:1003,1
DA:1006,1
DA:1007,1
DA:1008,1
DA:1011,1
DA:1012,1
DA:1013,1
DA:1014,1
DA:1015,1
DA:1016,1
DA:1019,1
DA:1020,1
DA:1021,1
DA:1022,1
DA:1023,1
DA:1024,1
DA:1027,1
DA:1028,1
DA:1029,1
DA:1030,1
DA:1031,1
DA:1032,1
DA:1034,1
DA:1035,1
DA:1036,1
DA:1037,1
DA:1038,1
DA:1041,1
DA:1042,1
DA:1043,1
DA:1046,1
DA:1047,1
DA:1048,1
DA:1049,1
DA:1050,1
DA:1051,1
DA:1052,1
DA:1053,1
DA:1054,1
DA:1057,1
DA:1058,1
DA:1059,1
DA:1062,1
DA:1063,1
DA:1064,1
DA:1067,1
DA:1068,1
DA:1069,1
DA:1070,1
DA:1071,1
DA:1072,1
DA:1075,1
DA:1076,1
DA:1077,1
DA:1080,1
DA:1081,1
DA:1082,1
DA:1085,1
DA:1086,1
DA:1087,1
DA:1091,1
DA:1092,1
DA:1093,1
DA:1094,1
DA:1095,1
DA:1096,1
DA:1097,1
DA:1098,1
DA:1099,1
DA:1100,1
DA:1101,1
DA:1102,1
DA:1103,1
DA:1104,1
DA:1105,1
DA:1106,1
DA:1107,1
DA:1108,1
DA:1109,1
DA:1110,1
DA:1111,1
DA:1112,1
DA:1113,1
DA:1114,1
BRF:0
BRH:0
LF:777
LH:777
end_of_record